; Function Attrs: mustprogress uwtable
define hidden noundef nonnull align 8 dereferenceable(8) ptr @_ZN5boost20read_graphviz_detaillsERSoRKNS0_13node_and_portE(ptr noundef nonnull returned align 8 dereferenceable(8) %0, ptr nocapture noundef nonnull readonly align 8 dereferenceable(88) %1) local_unnamed_addr #3 {
  %3 = load ptr, ptr %1, align 8, !tbaa !11
  %4 = getelementptr inbounds nuw i8, ptr %1, i64 8
  %5 = load i64, ptr %4, align 8, !tbaa !14
  %6 = tail call noundef nonnull align 8 dereferenceable(8) ptr @_ZSt16__ostream_insertIcSt11char_traitsIcEERSt13basic_ostreamIT_T0_ES6_PKS3_l(ptr noundef nonnull align 8 dereferenceable(8) %0, ptr noundef %3, i64 noundef %5)
  %7 = getelementptr inbounds nuw i8, ptr %1, i64 64
  %8 = getelementptr inbounds nuw i8, ptr %1, i64 72
  %9 = load ptr, ptr %8, align 8, !tbaa !103
  %10 = load ptr, ptr %7, align 8, !tbaa !105
  %.not = icmp eq ptr %9, %10
  br i1 %.not, label %._crit_edge, label %.lr.ph

._crit_edge:                                      ; preds = %.lr.ph, %2
  %11 = getelementptr inbounds nuw i8, ptr %1, i64 40
  %12 = load i64, ptr %11, align 8, !tbaa !14
  %13 = icmp eq i64 %12, 0
  br i1 %13, label %35, label %29

.lr.ph:                                           ; preds = %2, %.lr.ph
  %.011 = phi i64 [ %21, %.lr.ph ], [ 0, %2 ]
  %14 = tail call noundef nonnull align 8 dereferenceable(8) ptr @_ZSt16__ostream_insertIcSt11char_traitsIcEERSt13basic_ostreamIT_T0_ES6_PKS3_l(ptr noundef nonnull align 8 dereferenceable(8) %0, ptr noundef nonnull @.str.5, i64 noundef 1)
  %15 = load ptr, ptr %7, align 8, !tbaa !105
  %16 = getelementptr inbounds nuw %"class.std::__cxx11::basic_string", ptr %15, i64 %.011
  %17 = load ptr, ptr %16, align 8, !tbaa !11
  %18 = getelementptr inbounds nuw i8, ptr %16, i64 8
  %19 = load i64, ptr %18, align 8, !tbaa !14
  %20 = tail call noundef nonnull align 8 dereferenceable(8) ptr @_ZSt16__ostream_insertIcSt11char_traitsIcEERSt13basic_ostreamIT_T0_ES6_PKS3_l(ptr noundef nonnull align 8 dereferenceable(8) %0, ptr noundef %17, i64 noundef %19)
  %21 = add nuw i64 %.011, 1
  %22 = load ptr, ptr %8, align 8, !tbaa !103
  %23 = load ptr, ptr %7, align 8, !tbaa !105
  %24 = ptrtoint ptr %22 to i64
  %25 = ptrtoint ptr %23 to i64
  %26 = sub i64 %24, %25
  %27 = ashr exact i64 %26, 5
  %28 = icmp ult i64 %21, %27
  br i1 %28, label %.lr.ph, label %._crit_edge, !llvm.loop !106

29:                                               ; preds = %._crit_edge
  %30 = getelementptr inbounds nuw i8, ptr %1, i64 32
  %31 = tail call noundef nonnull align 8 dereferenceable(8) ptr @_ZSt16__ostream_insertIcSt11char_traitsIcEERSt13basic_ostreamIT_T0_ES6_PKS3_l(ptr noundef nonnull align 8 dereferenceable(8) %0, ptr noundef nonnull @.str.6, i64 noundef 1)
  %32 = load ptr, ptr %30, align 8, !tbaa !11
  %33 = load i64, ptr %11, align 8, !tbaa !14
  %34 = tail call noundef nonnull align 8 dereferenceable(8) ptr @_ZSt16__ostream_insertIcSt11char_traitsIcEERSt13basic_ostreamIT_T0_ES6_PKS3_l(ptr noundef nonnull align 8 dereferenceable(8) %0, ptr noundef %32, i64 noundef %33)
  br label %35

35:                                               ; preds = %29, %._crit_edge
  ret ptr %0
}